target datalayout = "e-m:e-p270:32:32-p271:32:32-p272:64:64-i64:64-i128:128-f80:128-n8:16:32:64-S128"
target triple = "x86_64-pc-linux-gnu"

%struct.Aig_Obj_t_ = type { %union.anon, ptr, ptr, i64, i32, i32, %union.anon.0 }
%union.anon = type { ptr }
%union.anon.0 = type { ptr }
%struct.Aig_Man_t_ = type { ptr, ptr, ptr, ptr, ptr, ptr, ptr, %struct.Aig_Obj_t_, i32, i32, i32, i32, i32, i32, [7 x i32], i32, ptr, i32, ptr, i32, ptr, i32, i32, i32, ptr, i32, i32, i32, i32, i32, ptr, ptr, i32, ptr, ptr, i32, ptr, ptr, i32, i32, i32, ptr, ptr, ptr, ptr, ptr, ptr, ptr, ptr, ptr, ptr, ptr, ptr, ptr, ptr, i32, ptr, ptr, ptr, ptr, i32, i64, i64, i64, ptr, ptr }
%struct.Gia_Man_t_ = type { ptr, ptr, i32, i32, i32, i32, ptr, ptr, i32, i32, i32, ptr, ptr, %struct.Vec_Int_t_, %struct.Vec_Int_t_, i32, i32, i32, %struct.Vec_Int_t_, ptr, ptr, ptr, i32, i32, i32, i32, ptr, ptr, ptr, ptr, ptr, i32, i32, ptr, i32, ptr, ptr, ptr, ptr, ptr, ptr, ptr, ptr, ptr, ptr, ptr, ptr, ptr, ptr, ptr, ptr, ptr, ptr, %struct.Vec_Int_t_, %struct.Vec_Int_t_, ptr, ptr, ptr, ptr, ptr, ptr, ptr, ptr, ptr, ptr, ptr, ptr, ptr, ptr, ptr, ptr, ptr, ptr, ptr, ptr, ptr, i32, float, float, ptr, ptr, i32, ptr, ptr, ptr, ptr, ptr, ptr, ptr, ptr, ptr, ptr, ptr, ptr, ptr, ptr, ptr, i64, i64, ptr, ptr, i32, i32, i32, i32, i32, i32, i32, i32, i32, i32, i32, i32, ptr, ptr, ptr, ptr, ptr, ptr, ptr, ptr, i32, i32, i32, ptr, i32, i32, ptr, ptr, ptr, ptr, ptr, ptr, i32, i32, ptr, %struct.Vec_Int_t_, %struct.Vec_Int_t_, %struct.Vec_Int_t_, ptr, ptr, ptr, i32, i32, i32, i32, ptr, ptr, ptr, ptr, ptr }
%struct.Vec_Int_t_ = type { i32, i32, ptr }
%struct.Vec_Ptr_t_ = type { i32, i32, ptr }

; Function Attrs: inlinehint nounwind uwtable
define internal i32 @Aig_IsComplement(ptr noundef %0) #2 {
  %2 = alloca ptr, align 8
  store ptr %0, ptr %2, align 8, !tbaa !10
  %3 = load ptr, ptr %2, align 8, !tbaa !10
  %4 = ptrtoint ptr %3 to i64
  %5 = and i64 %4, 1
  %6 = trunc i64 %5 to i32
  ret i32 %6
}

; Function Attrs: inlinehint nounwind uwtable
define internal i32 @Abc_LitNotCond(i32 noundef %0, i32 noundef %1) #2 {
  %3 = alloca i32, align 4
  %4 = alloca i32, align 4
  store i32 %0, ptr %3, align 4, !tbaa !26
  store i32 %1, ptr %4, align 4, !tbaa !26
  %5 = load i32, ptr %3, align 4, !tbaa !26
  %6 = load i32, ptr %4, align 4, !tbaa !26
  %7 = icmp sgt i32 %6, 0
  %8 = zext i1 %7 to i32
  %9 = xor i32 %5, %8
  ret i32 %9
}

; Function Attrs: inlinehint nounwind uwtable
define internal i32 @Aig_ObjFaninC0(ptr noundef %0) #2 {
  %2 = alloca ptr, align 8
  store ptr %0, ptr %2, align 8, !tbaa !10
  %3 = load ptr, ptr %2, align 8, !tbaa !10
  %4 = getelementptr inbounds nuw %struct.Aig_Obj_t_, ptr %3, i32 0, i32 1
  %5 = load ptr, ptr %4, align 8, !tbaa !40
  %6 = call i32 @Aig_IsComplement(ptr noundef %5)
  ret i32 %6
}

; Function Attrs: inlinehint nounwind uwtable
define internal ptr @Aig_Regular(ptr noundef %0) #2 {
  %2 = alloca ptr, align 8
  store ptr %0, ptr %2, align 8, !tbaa !10
  %3 = load ptr, ptr %2, align 8, !tbaa !10
  %4 = ptrtoint ptr %3 to i64
  %5 = and i64 %4, -2
  %6 = inttoptr i64 %5 to ptr
  ret ptr %6
}

; Function Attrs: inlinehint nounwind uwtable
define internal i32 @Aig_ManRegNum(ptr noundef %0) #2 {
  %2 = alloca ptr, align 8
  store ptr %0, ptr %2, align 8, !tbaa !8
  %3 = load ptr, ptr %2, align 8, !tbaa !8
  %4 = getelementptr inbounds nuw %struct.Aig_Man_t_, ptr %3, i32 0, i32 8
  %5 = load i32, ptr %4, align 8, !tbaa !71
  ret i32 %5
}

; Function Attrs: inlinehint nounwind uwtable
define internal i32 @Gia_ObjChild0Copy(ptr noundef %0) #2 {
  %2 = alloca ptr, align 8
  store ptr %0, ptr %2, align 8, !tbaa !10
  %3 = load ptr, ptr %2, align 8, !tbaa !10
  %4 = call ptr @Aig_ObjFanin0(ptr noundef %3)
  %5 = getelementptr inbounds nuw %struct.Aig_Obj_t_, ptr %4, i32 0, i32 6
  %6 = load i32, ptr %5, align 8, !tbaa !12
  %7 = load ptr, ptr %2, align 8, !tbaa !10
  %8 = call i32 @Aig_ObjFaninC0(ptr noundef %7)
  %9 = call i32 @Abc_LitNotCond(i32 noundef %6, i32 noundef %8)
  ret i32 %9
}

; Function Attrs: inlinehint nounwind uwtable
define internal ptr @Aig_ObjFanin0(ptr noundef %0) #2 {
  %2 = alloca ptr, align 8
  store ptr %0, ptr %2, align 8, !tbaa !10
  %3 = load ptr, ptr %2, align 8, !tbaa !10
  %4 = getelementptr inbounds nuw %struct.Aig_Obj_t_, ptr %3, i32 0, i32 1
  %5 = load ptr, ptr %4, align 8, !tbaa !40
  %6 = call ptr @Aig_Regular(ptr noundef %5)
  ret ptr %6
}

; Function Attrs: inlinehint nounwind uwtable
define internal ptr @Vec_PtrEntry(ptr noundef %0, i32 noundef %1) #2 {
  %3 = alloca ptr, align 8
  %4 = alloca i32, align 4
  store ptr %0, ptr %3, align 8, !tbaa !64
  store i32 %1, ptr %4, align 4, !tbaa !26
  %5 = load ptr, ptr %3, align 8, !tbaa !64
  %6 = getelementptr inbounds nuw %struct.Vec_Ptr_t_, ptr %5, i32 0, i32 2
  %7 = load ptr, ptr %6, align 8, !tbaa !67
  %8 = load i32, ptr %4, align 4, !tbaa !26
  %9 = sext i32 %8 to i64
  %10 = getelementptr inbounds ptr, ptr %7, i64 %9
  %11 = load ptr, ptr %10, align 8, !tbaa !68
  ret ptr %11
}

; Function Attrs: inlinehint nounwind uwtable
define internal i32 @Vec_PtrSize(ptr noundef %0) #2 {
  %2 = alloca ptr, align 8
  store ptr %0, ptr %2, align 8, !tbaa !64
  %3 = load ptr, ptr %2, align 8, !tbaa !64
  %4 = getelementptr inbounds nuw %struct.Vec_Ptr_t_, ptr %3, i32 0, i32 1
  %5 = load i32, ptr %4, align 4, !tbaa !65
  ret i32 %5
}

; Function Attrs: inlinehint nounwind uwtable
define internal ptr @Aig_ManConst1(ptr noundef %0) #2 {
  %2 = alloca ptr, align 8
  store ptr %0, ptr %2, align 8, !tbaa !8
  %3 = load ptr, ptr %2, align 8, !tbaa !8
  %4 = getelementptr inbounds nuw %struct.Aig_Man_t_, ptr %3, i32 0, i32 6
  %5 = load ptr, ptr %4, align 8, !tbaa !63
  ret ptr %5
}

; Function Attrs: inlinehint nounwind uwtable
define internal ptr @Abc_UtilStrsav(ptr noundef %0) #2 {
  %2 = alloca ptr, align 8
  store ptr %0, ptr %2, align 8, !tbaa !62
  %3 = load ptr, ptr %2, align 8, !tbaa !62
  %4 = icmp ne ptr %3, null
  br i1 %4, label %5, label %13

5:                                                ; preds = %1
  %6 = load ptr, ptr %2, align 8, !tbaa !62
  %7 = call i64 @strlen(ptr noundef %6) #14
  %8 = add i64 %7, 1
  %9 = mul i64 1, %8
  %10 = call noalias ptr @malloc(i64 noundef %9) #15
  %11 = load ptr, ptr %2, align 8, !tbaa !62
  %12 = call ptr @strcpy(ptr noundef %10, ptr noundef %11) #12
  br label %14

13:                                               ; preds = %1
  br label %14

14:                                               ; preds = %13, %5
  %15 = phi ptr [ %12, %5 ], [ null, %13 ]
  ret ptr %15
}

; Function Attrs: inlinehint nounwind uwtable
define internal i32 @Aig_ManObjNum(ptr noundef %0) #2 {
  %2 = alloca ptr, align 8
  store ptr %0, ptr %2, align 8, !tbaa !8
  %3 = load ptr, ptr %2, align 8, !tbaa !8
  %4 = getelementptr inbounds nuw %struct.Aig_Man_t_, ptr %3, i32 0, i32 4
  %5 = load ptr, ptr %4, align 8, !tbaa !60
  %6 = call i32 @Vec_PtrSize(ptr noundef %5)
  %7 = load ptr, ptr %2, align 8, !tbaa !8
  %8 = getelementptr inbounds nuw %struct.Aig_Man_t_, ptr %7, i32 0, i32 15
  %9 = load i32, ptr %8, align 4, !tbaa !61
  %10 = sub nsw i32 %6, %9
  ret i32 %10
}

; Function Attrs: nounwind uwtable
define ptr @Gia_ManFromAig(ptr noundef %0) #0 {
  %2 = alloca ptr, align 8
  %3 = alloca ptr, align 8
  %4 = alloca ptr, align 8
  %5 = alloca i32, align 4
  store ptr %0, ptr %2, align 8, !tbaa !8
  call void @llvm.lifetime.start.p0(i64 8, ptr %3) #12
  call void @llvm.lifetime.start.p0(i64 8, ptr %4) #12
  call void @llvm.lifetime.start.p0(i64 4, ptr %5) #12
  %6 = load ptr, ptr %2, align 8, !tbaa !8
  %7 = call i32 @Aig_ManObjNum(ptr noundef %6)
  %8 = call ptr @Gia_ManStart(i32 noundef %7)
  store ptr %8, ptr %3, align 8, !tbaa !3
  %9 = load ptr, ptr %2, align 8, !tbaa !8
  %10 = getelementptr inbounds nuw %struct.Aig_Man_t_, ptr %9, i32 0, i32 0
  %11 = load ptr, ptr %10, align 8, !tbaa !48
  %12 = call ptr @Abc_UtilStrsav(ptr noundef %11)
  %13 = load ptr, ptr %3, align 8, !tbaa !3
  %14 = getelementptr inbounds nuw %struct.Gia_Man_t_, ptr %13, i32 0, i32 0
  store ptr %12, ptr %14, align 8, !tbaa !49
  %15 = load ptr, ptr %2, align 8, !tbaa !8
  %16 = getelementptr inbounds nuw %struct.Aig_Man_t_, ptr %15, i32 0, i32 1
  %17 = load ptr, ptr %16, align 8, !tbaa !50
  %18 = call ptr @Abc_UtilStrsav(ptr noundef %17)
  %19 = load ptr, ptr %3, align 8, !tbaa !3
  %20 = getelementptr inbounds nuw %struct.Gia_Man_t_, ptr %19, i32 0, i32 1
  store ptr %18, ptr %20, align 8, !tbaa !51
  %21 = load ptr, ptr %2, align 8, !tbaa !8
  %22 = getelementptr inbounds nuw %struct.Aig_Man_t_, ptr %21, i32 0, i32 12
  %23 = load i32, ptr %22, align 8, !tbaa !52
  %24 = load ptr, ptr %3, align 8, !tbaa !3
  %25 = getelementptr inbounds nuw %struct.Gia_Man_t_, ptr %24, i32 0, i32 23
  store i32 %23, ptr %25, align 4, !tbaa !53
  %26 = load ptr, ptr %2, align 8, !tbaa !8
  %27 = getelementptr inbounds nuw %struct.Aig_Man_t_, ptr %26, i32 0, i32 30
  %28 = load ptr, ptr %27, align 8, !tbaa !13
  %29 = icmp ne ptr %28, null
  br i1 %29, label %30, label %37

30:                                               ; preds = %1
  %31 = load ptr, ptr %2, align 8, !tbaa !8
  %32 = call i32 @Aig_ManObjNum(ptr noundef %31)
  %33 = sext i32 %32 to i64
  %34 = call noalias ptr @calloc(i64 noundef %33, i64 noundef 4) #13
  %35 = load ptr, ptr %3, align 8, !tbaa !3
  %36 = getelementptr inbounds nuw %struct.Gia_Man_t_, ptr %35, i32 0, i32 28
  store ptr %34, ptr %36, align 8, !tbaa !27
  br label %37

37:                                               ; preds = %30, %1
  %38 = load ptr, ptr %2, align 8, !tbaa !8
  call void @Aig_ManCleanData(ptr noundef %38)
  %39 = load ptr, ptr %2, align 8, !tbaa !8
  %40 = call ptr @Aig_ManConst1(ptr noundef %39)
  %41 = getelementptr inbounds nuw %struct.Aig_Obj_t_, ptr %40, i32 0, i32 6
  store i32 1, ptr %41, align 8, !tbaa !12
  store i32 0, ptr %5, align 4, !tbaa !26
  br label %42

42:                                               ; preds = %62, %37
  %43 = load i32, ptr %5, align 4, !tbaa !26
  %44 = load ptr, ptr %2, align 8, !tbaa !8
  %45 = getelementptr inbounds nuw %struct.Aig_Man_t_, ptr %44, i32 0, i32 2
  %46 = load ptr, ptr %45, align 8, !tbaa !54
  %47 = call i32 @Vec_PtrSize(ptr noundef %46)
  %48 = icmp slt i32 %43, %47
  br i1 %48, label %49, label %55

49:                                               ; preds = %42
  %50 = load ptr, ptr %2, align 8, !tbaa !8
  %51 = getelementptr inbounds nuw %struct.Aig_Man_t_, ptr %50, i32 0, i32 2
  %52 = load ptr, ptr %51, align 8, !tbaa !54
  %53 = load i32, ptr %5, align 4, !tbaa !26
  %54 = call ptr @Vec_PtrEntry(ptr noundef %52, i32 noundef %53)
  store ptr %54, ptr %4, align 8, !tbaa !10
  br label %55

55:                                               ; preds = %49, %42
  %56 = phi i1 [ false, %42 ], [ true, %49 ]
  br i1 %56, label %57, label %65

57:                                               ; preds = %55
  %58 = load ptr, ptr %3, align 8, !tbaa !3
  %59 = call i32 @Gia_ManAppendCi(ptr noundef %58)
  %60 = load ptr, ptr %4, align 8, !tbaa !10
  %61 = getelementptr inbounds nuw %struct.Aig_Obj_t_, ptr %60, i32 0, i32 6
  store i32 %59, ptr %61, align 8, !tbaa !12
  br label %62

62:                                               ; preds = %57
  %63 = load i32, ptr %5, align 4, !tbaa !26
  %64 = add nsw i32 %63, 1
  store i32 %64, ptr %5, align 4, !tbaa !26
  br label %42, !llvm.loop !55

65:                                               ; preds = %55
  store i32 0, ptr %5, align 4, !tbaa !26
  br label %66

66:                                               ; preds = %86, %65
  %67 = load i32, ptr %5, align 4, !tbaa !26
  %68 = load ptr, ptr %2, align 8, !tbaa !8
  %69 = getelementptr inbounds nuw %struct.Aig_Man_t_, ptr %68, i32 0, i32 3
  %70 = load ptr, ptr %69, align 8, !tbaa !57
  %71 = call i32 @Vec_PtrSize(ptr noundef %70)
  %72 = icmp slt i32 %67, %71
  br i1 %72, label %73, label %79

73:                                               ; preds = %66
  %74 = load ptr, ptr %2, align 8, !tbaa !8
  %75 = getelementptr inbounds nuw %struct.Aig_Man_t_, ptr %74, i32 0, i32 3
  %76 = load ptr, ptr %75, align 8, !tbaa !57
  %77 = load i32, ptr %5, align 4, !tbaa !26
  %78 = call ptr @Vec_PtrEntry(ptr noundef %76, i32 noundef %77)
  store ptr %78, ptr %4, align 8, !tbaa !10
  br label %79

79:                                               ; preds = %73, %66
  %80 = phi i1 [ false, %66 ], [ true, %73 ]
  br i1 %80, label %81, label %89

81:                                               ; preds = %79
  %82 = load ptr, ptr %3, align 8, !tbaa !3
  %83 = load ptr, ptr %2, align 8, !tbaa !8
  %84 = load ptr, ptr %4, align 8, !tbaa !10
  %85 = call ptr @Aig_ObjFanin0(ptr noundef %84)
  call void @Gia_ManFromAig_rec(ptr noundef %82, ptr noundef %83, ptr noundef %85)
  br label %86

86:                                               ; preds = %81
  %87 = load i32, ptr %5, align 4, !tbaa !26
  %88 = add nsw i32 %87, 1
  store i32 %88, ptr %5, align 4, !tbaa !26
  br label %66, !llvm.loop !58

89:                                               ; preds = %79
  store i32 0, ptr %5, align 4, !tbaa !26
  br label %90

90:                                               ; preds = %110, %89
  %91 = load i32, ptr %5, align 4, !tbaa !26
  %92 = load ptr, ptr %2, align 8, !tbaa !8
  %93 = getelementptr inbounds nuw %struct.Aig_Man_t_, ptr %92, i32 0, i32 3
  %94 = load ptr, ptr %93, align 8, !tbaa !57
  %95 = call i32 @Vec_PtrSize(ptr noundef %94)
  %96 = icmp slt i32 %91, %95
  br i1 %96, label %97, label %103

97:                                               ; preds = %90
  %98 = load ptr, ptr %2, align 8, !tbaa !8
  %99 = getelementptr inbounds nuw %struct.Aig_Man_t_, ptr %98, i32 0, i32 3
  %100 = load ptr, ptr %99, align 8, !tbaa !57
  %101 = load i32, ptr %5, align 4, !tbaa !26
  %102 = call ptr @Vec_PtrEntry(ptr noundef %100, i32 noundef %101)
  store ptr %102, ptr %4, align 8, !tbaa !10
  br label %103

103:                                              ; preds = %97, %90
  %104 = phi i1 [ false, %90 ], [ true, %97 ]
  br i1 %104, label %105, label %113

105:                                              ; preds = %103
  %106 = load ptr, ptr %3, align 8, !tbaa !3
  %107 = load ptr, ptr %4, align 8, !tbaa !10
  %108 = call i32 @Gia_ObjChild0Copy(ptr noundef %107)
  %109 = call i32 @Gia_ManAppendCo(ptr noundef %106, i32 noundef %108)
  br label %110

110:                                              ; preds = %105
  %111 = load i32, ptr %5, align 4, !tbaa !26
  %112 = add nsw i32 %111, 1
  store i32 %112, ptr %5, align 4, !tbaa !26
  br label %90, !llvm.loop !59

113:                                              ; preds = %103
  %114 = load ptr, ptr %3, align 8, !tbaa !3
  %115 = load ptr, ptr %2, align 8, !tbaa !8
  %116 = call i32 @Aig_ManRegNum(ptr noundef %115)
  call void @Gia_ManSetRegNum(ptr noundef %114, i32 noundef %116)
  %117 = load ptr, ptr %3, align 8, !tbaa !3
  %118 = getelementptr inbounds nuw %struct.Gia_Man_t_, ptr %117, i32 0, i32 28
  %119 = load ptr, ptr %118, align 8, !tbaa !27
  %120 = icmp ne ptr %119, null
  br i1 %120, label %121, label %123

121:                                              ; preds = %113
  %122 = load ptr, ptr %3, align 8, !tbaa !3
  call void @Gia_ManDeriveReprs(ptr noundef %122)
  br label %123

123:                                              ; preds = %121, %113
  %124 = load ptr, ptr %3, align 8, !tbaa !3
  call void @llvm.lifetime.end.p0(i64 4, ptr %5) #12
  call void @llvm.lifetime.end.p0(i64 8, ptr %4) #12
  call void @llvm.lifetime.end.p0(i64 8, ptr %3) #12
  ret ptr %124
}