; Function Attrs: nounwind uwtable
define ptr @Gia_ManFromAig(ptr noundef %0) local_unnamed_addr #0 {
  %2 = getelementptr i8, ptr %0, i64 32
  %.val47 = load ptr, ptr %2, align 8, !tbaa !46
  %3 = getelementptr i8, ptr %0, i64 156
  %.val48 = load i32, ptr %3, align 4, !tbaa !47
  %4 = getelementptr i8, ptr %.val47, i64 4
  %.val47.val = load i32, ptr %4, align 4, !tbaa !48
  %5 = sub nsw i32 %.val47.val, %.val48
  %6 = tail call ptr @Gia_ManStart(i32 noundef %5) #17
  %7 = load ptr, ptr %0, align 8, !tbaa !50
  %.not.i = icmp eq ptr %7, null
  br i1 %.not.i, label %Abc_UtilStrsav.exit, label %8

8:                                                ; preds = %1
  %9 = tail call i64 @strlen(ptr noundef nonnull readonly dereferenceable(1) %7) #18
  %10 = add i64 %9, 1
  %11 = tail call noalias ptr @malloc(i64 noundef %10) #19
  %12 = tail call ptr @strcpy(ptr noundef nonnull dereferenceable(1) %11, ptr noundef nonnull readonly dereferenceable(1) %7) #17
  br label %Abc_UtilStrsav.exit

Abc_UtilStrsav.exit:                              ; preds = %1, %8
  %13 = phi ptr [ %11, %8 ], [ null, %1 ]
  store ptr %13, ptr %6, align 8, !tbaa !51
  %14 = getelementptr inbounds nuw i8, ptr %0, i64 8
  %15 = load ptr, ptr %14, align 8, !tbaa !52
  %.not.i56 = icmp eq ptr %15, null
  br i1 %.not.i56, label %Abc_UtilStrsav.exit57, label %16

16:                                               ; preds = %Abc_UtilStrsav.exit
  %17 = tail call i64 @strlen(ptr noundef nonnull readonly dereferenceable(1) %15) #18
  %18 = add i64 %17, 1
  %19 = tail call noalias ptr @malloc(i64 noundef %18) #19
  %20 = tail call ptr @strcpy(ptr noundef nonnull dereferenceable(1) %19, ptr noundef nonnull readonly dereferenceable(1) %15) #17
  br label %Abc_UtilStrsav.exit57

Abc_UtilStrsav.exit57:                            ; preds = %Abc_UtilStrsav.exit, %16
  %21 = phi ptr [ %19, %16 ], [ null, %Abc_UtilStrsav.exit ]
  %22 = getelementptr inbounds nuw i8, ptr %6, i64 8
  store ptr %21, ptr %22, align 8, !tbaa !53
  %23 = getelementptr inbounds nuw i8, ptr %0, i64 120
  %24 = load i32, ptr %23, align 8, !tbaa !54
  %25 = getelementptr inbounds nuw i8, ptr %6, i64 172
  store i32 %24, ptr %25, align 4, !tbaa !55
  %26 = getelementptr inbounds nuw i8, ptr %0, i64 248
  %27 = load ptr, ptr %26, align 8, !tbaa !12
  %.not = icmp eq ptr %27, null
  br i1 %.not, label %34, label %28

28:                                               ; preds = %Abc_UtilStrsav.exit57
  %.val49 = load ptr, ptr %2, align 8, !tbaa !46
  %.val50 = load i32, ptr %3, align 4, !tbaa !47
  %29 = getelementptr i8, ptr %.val49, i64 4
  %.val49.val = load i32, ptr %29, align 4, !tbaa !48
  %30 = sub nsw i32 %.val49.val, %.val50
  %31 = sext i32 %30 to i64
  %32 = tail call noalias ptr @calloc(i64 noundef %31, i64 noundef 4) #20
  %33 = getelementptr inbounds nuw i8, ptr %6, i64 200
  store ptr %32, ptr %33, align 8, !tbaa !26
  br label %34

34:                                               ; preds = %28, %Abc_UtilStrsav.exit57
  tail call void @Aig_ManCleanData(ptr noundef nonnull %0) #17
  %35 = getelementptr i8, ptr %0, i64 48
  %.val51 = load ptr, ptr %35, align 8, !tbaa !56
  %36 = getelementptr inbounds nuw i8, ptr %.val51, i64 40
  store i32 1, ptr %36, align 8, !tbaa !3
  %37 = getelementptr inbounds nuw i8, ptr %0, i64 16
  %38 = load ptr, ptr %37, align 8, !tbaa !57
  %39 = getelementptr i8, ptr %38, i64 4
  %.val4458 = load i32, ptr %39, align 4, !tbaa !48
  %40 = icmp sgt i32 %.val4458, 0
  br i1 %40, label %.lr.ph, label %.critedge.preheader

.critedge.preheader:                              ; preds = %.lr.ph, %34
  %41 = getelementptr inbounds nuw i8, ptr %0, i64 24
  %42 = load ptr, ptr %41, align 8, !tbaa !58
  %43 = getelementptr i8, ptr %42, i64 4
  %.val4560 = load i32, ptr %43, align 4, !tbaa !48
  %44 = icmp sgt i32 %.val4560, 0
  br i1 %44, label %.critedge, label %.critedge4

.lr.ph:                                           ; preds = %34, %.lr.ph
  %indvars.iv = phi i64 [ %indvars.iv.next, %.lr.ph ], [ 0, %34 ]
  %45 = phi ptr [ %51, %.lr.ph ], [ %38, %34 ]
  %46 = getelementptr i8, ptr %45, i64 8
  %.val52 = load ptr, ptr %46, align 8, !tbaa !59
  %47 = getelementptr inbounds nuw ptr, ptr %.val52, i64 %indvars.iv
  %48 = load ptr, ptr %47, align 8, !tbaa !60
  %49 = tail call fastcc i32 @Gia_ManAppendCi(ptr noundef nonnull %6)
  %50 = getelementptr inbounds nuw i8, ptr %48, i64 40
  store i32 %49, ptr %50, align 8, !tbaa !3
  %indvars.iv.next = add nuw nsw i64 %indvars.iv, 1
  %51 = load ptr, ptr %37, align 8, !tbaa !57
  %52 = getelementptr i8, ptr %51, i64 4
  %.val44 = load i32, ptr %52, align 4, !tbaa !48
  %53 = sext i32 %.val44 to i64
  %54 = icmp slt i64 %indvars.iv.next, %53
  br i1 %54, label %.lr.ph, label %.critedge.preheader, !llvm.loop !61

.critedge2.preheader:                             ; preds = %.critedge
  %55 = icmp sgt i32 %.val45, 0
  br i1 %55, label %.critedge2, label %.critedge4

.critedge:                                        ; preds = %.critedge.preheader, %.critedge
  %indvars.iv69 = phi i64 [ %indvars.iv.next70, %.critedge ], [ 0, %.critedge.preheader ]
  %56 = phi ptr [ %64, %.critedge ], [ %42, %.critedge.preheader ]
  %57 = getelementptr i8, ptr %56, i64 8
  %.val53 = load ptr, ptr %57, align 8, !tbaa !59
  %58 = getelementptr inbounds nuw ptr, ptr %.val53, i64 %indvars.iv69
  %59 = load ptr, ptr %58, align 8, !tbaa !60
  %60 = getelementptr i8, ptr %59, i64 8
  %.val = load ptr, ptr %60, align 8, !tbaa !6
  %61 = ptrtoint ptr %.val to i64
  %62 = and i64 %61, -2
  %63 = inttoptr i64 %62 to ptr
  tail call void @Gia_ManFromAig_rec(ptr noundef nonnull %6, ptr noundef nonnull %0, ptr noundef %63)
  %indvars.iv.next70 = add nuw nsw i64 %indvars.iv69, 1
  %64 = load ptr, ptr %41, align 8, !tbaa !58
  %65 = getelementptr i8, ptr %64, i64 4
  %.val45 = load i32, ptr %65, align 4, !tbaa !48
  %66 = sext i32 %.val45 to i64
  %67 = icmp slt i64 %indvars.iv.next70, %66
  br i1 %67, label %.critedge, label %.critedge2.preheader, !llvm.loop !63

.critedge2:                                       ; preds = %.critedge2.preheader, %.critedge2
  %indvars.iv72 = phi i64 [ %indvars.iv.next73, %.critedge2 ], [ 0, %.critedge2.preheader ]
  %68 = phi ptr [ %82, %.critedge2 ], [ %64, %.critedge2.preheader ]
  %69 = getelementptr i8, ptr %68, i64 8
  %.val54 = load ptr, ptr %69, align 8, !tbaa !59
  %70 = getelementptr inbounds nuw ptr, ptr %.val54, i64 %indvars.iv72
  %71 = load ptr, ptr %70, align 8, !tbaa !60
  %72 = getelementptr i8, ptr %71, i64 8
  %.val43 = load ptr, ptr %72, align 8, !tbaa !6
  %73 = ptrtoint ptr %.val43 to i64
  %74 = and i64 %73, -2
  %75 = inttoptr i64 %74 to ptr
  %76 = getelementptr inbounds nuw i8, ptr %75, i64 40
  %77 = load i32, ptr %76, align 8, !tbaa !3
  %78 = trunc i64 %73 to i32
  %79 = and i32 %78, 1
  %80 = xor i32 %79, %77
  %81 = tail call fastcc i32 @Gia_ManAppendCo(ptr noundef nonnull %6, i32 noundef %80)
  %indvars.iv.next73 = add nuw nsw i64 %indvars.iv72, 1
  %82 = load ptr, ptr %41, align 8, !tbaa !58
  %83 = getelementptr i8, ptr %82, i64 4
  %.val46 = load i32, ptr %83, align 4, !tbaa !48
  %84 = sext i32 %.val46 to i64
  %85 = icmp slt i64 %indvars.iv.next73, %84
  br i1 %85, label %.critedge2, label %.critedge4, !llvm.loop !64

.critedge4:                                       ; preds = %.critedge2, %.critedge.preheader, %.critedge2.preheader
  %86 = getelementptr i8, ptr %0, i64 104
  %.val55 = load i32, ptr %86, align 8, !tbaa !65
  tail call void @Gia_ManSetRegNum(ptr noundef nonnull %6, i32 noundef %.val55) #17
  %87 = getelementptr inbounds nuw i8, ptr %6, i64 200
  %88 = load ptr, ptr %87, align 8, !tbaa !26
  %.not42 = icmp eq ptr %88, null
  br i1 %.not42, label %90, label %89

89:                                               ; preds = %.critedge4
  tail call void @Gia_ManDeriveReprs(ptr noundef nonnull %6) #17
  br label %90

90:                                               ; preds = %89, %.critedge4
  ret ptr %6
}